target datalayout = "e-m:e-p270:32:32-p271:32:32-p272:64:64-i64:64-i128:128-f80:128-n8:16:32:64-S128"
target triple = "x86_64-pc-linux-gnu"

@.str.12 = private unnamed_addr constant [21 x i8] c"%s/INCREMENTAL.%s.%u\00", align 1
@.str.13 = private unnamed_addr constant [18 x i8] c"%s/INCREMENTAL.%s\00", align 1

; Function Attrs: nounwind uwtable
define dso_local ptr @GetIncrementalFilePath(i32 noundef %0, i32 noundef %1, i32 noundef %2, i32 noundef %3, i32 noundef %4) #0 {
  %6 = alloca i32, align 4
  %7 = alloca i32, align 4
  %8 = alloca i32, align 4
  %9 = alloca i32, align 4
  %10 = alloca i32, align 4
  %11 = alloca ptr, align 8
  %12 = alloca ptr, align 8
  %13 = alloca ptr, align 8
  store i32 %0, ptr %6, align 4
  store i32 %1, ptr %7, align 4
  store i32 %2, ptr %8, align 4
  store i32 %3, ptr %9, align 4
  store i32 %4, ptr %10, align 4
  call void @llvm.lifetime.start.p0(i64 8, ptr %11) #12
  call void @llvm.lifetime.start.p0(i64 8, ptr %12) #12
  call void @llvm.lifetime.start.p0(i64 8, ptr %13) #12
  %14 = load i32, ptr %6, align 4
  %15 = load i32, ptr %7, align 4
  %16 = load i32, ptr %8, align 4
  %17 = load i32, ptr %9, align 4
  %18 = call ptr @GetRelationPath(i32 noundef %14, i32 noundef %15, i32 noundef %16, i32 noundef -1, i32 noundef %17)
  store ptr %18, ptr %11, align 8
  %19 = load ptr, ptr %11, align 8
  %20 = call ptr @strrchr(ptr noundef %19, i32 noundef 47) #15
  store ptr %20, ptr %12, align 8
  %21 = load ptr, ptr %12, align 8
  store i8 0, ptr %21, align 1
  %22 = load i32, ptr %10, align 4
  %23 = icmp ugt i32 %22, 0
  br i1 %23, label %24, label %30

24:                                               ; preds = %5
  %25 = load ptr, ptr %11, align 8
  %26 = load ptr, ptr %12, align 8
  %27 = getelementptr inbounds i8, ptr %26, i64 1
  %28 = load i32, ptr %10, align 4
  %29 = call ptr (ptr, ...) @psprintf(ptr noundef @.str.12, ptr noundef %25, ptr noundef %27, i32 noundef %28)
  store ptr %29, ptr %13, align 8
  br label %35

30:                                               ; preds = %5
  %31 = load ptr, ptr %11, align 8
  %32 = load ptr, ptr %12, align 8
  %33 = getelementptr inbounds i8, ptr %32, i64 1
  %34 = call ptr (ptr, ...) @psprintf(ptr noundef @.str.13, ptr noundef %31, ptr noundef %33)
  store ptr %34, ptr %13, align 8
  br label %35

35:                                               ; preds = %30, %24
  %36 = load ptr, ptr %11, align 8
  call void @pfree(ptr noundef %36)
  %37 = load ptr, ptr %13, align 8
  call void @llvm.lifetime.end.p0(i64 8, ptr %13) #12
  call void @llvm.lifetime.end.p0(i64 8, ptr %12) #12
  call void @llvm.lifetime.end.p0(i64 8, ptr %11) #12
  ret ptr %37
}