; Function Attrs: nounwind uwtable
define dso_local ptr @GetIncrementalFilePath(i32 noundef %0, i32 noundef %1, i32 noundef %2, i32 noundef %3, i32 noundef %4) local_unnamed_addr #0 {
  %6 = tail call ptr @GetRelationPath(i32 noundef %0, i32 noundef %1, i32 noundef %2, i32 noundef -1, i32 noundef %3) #14
  %7 = tail call ptr @strrchr(ptr noundef nonnull dereferenceable(1) %6, i32 noundef 47) #16
  store i8 0, ptr %7, align 1
  %.not = icmp eq i32 %4, 0
  %8 = getelementptr inbounds nuw i8, ptr %7, i64 1
  br i1 %.not, label %11, label %9

9:                                                ; preds = %5
  %10 = tail call ptr (ptr, ...) @psprintf(ptr noundef nonnull @.str.12, ptr noundef nonnull %6, ptr noundef nonnull %8, i32 noundef %4) #14
  br label %13

11:                                               ; preds = %5
  %12 = tail call ptr (ptr, ...) @psprintf(ptr noundef nonnull @.str.13, ptr noundef nonnull %6, ptr noundef nonnull %8) #14
  br label %13

13:                                               ; preds = %11, %9
  %.0 = phi ptr [ %10, %9 ], [ %12, %11 ]
  tail call void @pfree(ptr noundef nonnull %6) #14
  ret ptr %.0
}